; Function Attrs: mustprogress uwtable
define internal void @_ZL12tcp_shutdownP13grpc_endpointN4absl12lts_202308026StatusE(ptr noundef %ep, ptr nocapture noundef readonly %why) #6 personality ptr @__gxx_personality_v0 {
entry:
  %agg.tmp = alloca %"class.absl::lts_20230802::Status", align 8
  %shutdown_.i.i = getelementptr inbounds i8, ptr %ep, i64 676
  store atomic i8 1, ptr %shutdown_.i.i release, align 1
  %lock_.i.i = getelementptr inbounds i8, ptr %ep, i64 664
  %free_send_records_size_.i.i = getelementptr inbounds i8, ptr %ep, i64 660
  %max_sends_.i.i = getelementptr inbounds i8, ptr %ep, i64 656
  br label %while.cond.i

while.cond.i:                                     ; preds = %while.body.i, %entry
  tail call void @_ZN4absl12lts_202308025Mutex4LockEv(ptr noundef nonnull align 8 dereferenceable(8) %lock_.i.i)
  %0 = load i32, ptr %free_send_records_size_.i.i, align 4
  %1 = load i32, ptr %max_sends_.i.i, align 8
  invoke void @_ZN4absl12lts_202308025Mutex6UnlockEv(ptr noundef nonnull align 8 dereferenceable(8) %lock_.i.i)
          to label %_ZN9grpc_core18TcpZerocopySendCtx19AllSendRecordsEmptyEv.exit.i unwind label %terminate.lpad.i.i.i

terminate.lpad.i.i.i:                             ; preds = %while.cond.i
  %2 = landingpad { ptr, i32 }
          catch ptr null
  %3 = extractvalue { ptr, i32 } %2, 0
  tail call void @__clang_call_terminate(ptr %3) #27
  unreachable

_ZN9grpc_core18TcpZerocopySendCtx19AllSendRecordsEmptyEv.exit.i: ; preds = %while.cond.i
  %cmp.i.i = icmp eq i32 %0, %1
  br i1 %cmp.i.i, label %_ZL34ZerocopyDisableAndWaitForRemainingPN12_GLOBAL__N_18grpc_tcpE.exit, label %while.body.i

while.body.i:                                     ; preds = %_ZN9grpc_core18TcpZerocopySendCtx19AllSendRecordsEmptyEv.exit.i
  %call2.i = tail call fastcc noundef zeroext i1 @_ZL14process_errorsPN12_GLOBAL__N_18grpc_tcpE(ptr noundef nonnull %ep)
  br label %while.cond.i, !llvm.loop !43

_ZL34ZerocopyDisableAndWaitForRemainingPN12_GLOBAL__N_18grpc_tcpE.exit: ; preds = %_ZN9grpc_core18TcpZerocopySendCtx19AllSendRecordsEmptyEv.exit.i
  %em_fd = getelementptr inbounds i8, ptr %ep, i64 8
  %4 = load ptr, ptr %em_fd, align 8
  %5 = load i64, ptr %why, align 8
  store i64 %5, ptr %agg.tmp, align 8
  %and.i.i.i = and i64 %5, 1
  %cmp.i.i.i = icmp eq i64 %and.i.i.i, 0
  br i1 %cmp.i.i.i, label %_ZN4absl12lts_202308026StatusC2ERKS1_.exit, label %if.then.i.i

if.then.i.i:                                      ; preds = %_ZL34ZerocopyDisableAndWaitForRemainingPN12_GLOBAL__N_18grpc_tcpE.exit
  %sub.i.i.i = add nsw i64 %5, -1
  %6 = inttoptr i64 %sub.i.i.i to ptr
  %7 = atomicrmw add ptr %6, i32 1 monotonic, align 4
  br label %_ZN4absl12lts_202308026StatusC2ERKS1_.exit

_ZN4absl12lts_202308026StatusC2ERKS1_.exit:       ; preds = %_ZL34ZerocopyDisableAndWaitForRemainingPN12_GLOBAL__N_18grpc_tcpE.exit, %if.then.i.i
  invoke void @_Z16grpc_fd_shutdownP7grpc_fdN4absl12lts_202308026StatusE(ptr noundef %4, ptr noundef nonnull %agg.tmp)
          to label %invoke.cont unwind label %lpad

invoke.cont:                                      ; preds = %_ZN4absl12lts_202308026StatusC2ERKS1_.exit
  %8 = load i64, ptr %agg.tmp, align 8
  %and.i.i.i5 = and i64 %8, 1
  %cmp.i.i.i6 = icmp eq i64 %and.i.i.i5, 0
  br i1 %cmp.i.i.i6, label %_ZN4absl12lts_202308026StatusD2Ev.exit, label %if.then.i.i7

if.then.i.i7:                                     ; preds = %invoke.cont
  invoke void @_ZN4absl12lts_202308026Status15UnrefNonInlinedEm(i64 noundef %8)
          to label %_ZN4absl12lts_202308026StatusD2Ev.exit unwind label %terminate.lpad.i

terminate.lpad.i:                                 ; preds = %if.then.i.i7
  %9 = landingpad { ptr, i32 }
          catch ptr null
  %10 = extractvalue { ptr, i32 } %9, 0
  call void @__clang_call_terminate(ptr %10) #27
  unreachable

_ZN4absl12lts_202308026StatusD2Ev.exit:           ; preds = %invoke.cont, %if.then.i.i7
  %read_mu = getelementptr inbounds i8, ptr %ep, i64 328
  call void @_ZN4absl12lts_202308025Mutex4LockEv(ptr noundef nonnull align 8 dereferenceable(8) %read_mu)
  %memory_owner = getelementptr inbounds i8, ptr %ep, i64 552
  call void @_ZN17grpc_event_engine12experimental15MemoryAllocator5ResetEv(ptr noundef nonnull align 8 dereferenceable(16) %memory_owner)
  call void @_ZN4absl12lts_202308025Mutex6UnlockEv(ptr noundef nonnull align 8 dereferenceable(8) %read_mu)
  ret void

lpad:                                             ; preds = %_ZN4absl12lts_202308026StatusC2ERKS1_.exit
  %11 = landingpad { ptr, i32 }
          cleanup
  call void @_ZN4absl12lts_202308026StatusD2Ev(ptr noundef nonnull align 8 dereferenceable(8) %agg.tmp) #24
  resume { ptr, i32 } %11
}